target datalayout = "e-m:e-p270:32:32-p271:32:32-p272:64:64-i64:64-i128:128-f80:128-n8:16:32:64-S128"
target triple = "x86_64-pc-linux-gnu"

@.str.872 = private unnamed_addr constant [23 x i8] c"DOCSIS Appendix C TLVs\00", align 1
@.str.873 = private unnamed_addr constant [12 x i8] c"DOCSIS TLVs\00", align 1
@.str.874 = private unnamed_addr constant [11 x i8] c"docsis_tlv\00", align 1
@proto_docsis_tlv = internal global i32 0, align 4

; Function Attrs: null_pointer_is_valid sspstrong uwtable
define hidden void @proto_register_docsis_tlv() #1 {
  %1 = alloca ptr, align 8
  call void @llvm.lifetime.start.p0(i64 8, ptr %1) #4
  %2 = call i32 @proto_register_protocol(ptr noundef @.str.872, ptr noundef @.str.873, ptr noundef @.str.874)
  store i32 %2, ptr @proto_docsis_tlv, align 4
  %3 = load i32, ptr @proto_docsis_tlv, align 4
  call void @proto_register_field_array(i32 noundef %3, ptr noundef @proto_register_docsis_tlv.hf, i32 noundef 388)
  call void @proto_register_subtree_array(ptr noundef @proto_register_docsis_tlv.ett, i32 noundef 71)
  %4 = load i32, ptr @proto_docsis_tlv, align 4
  %5 = call ptr @expert_register_protocol(i32 noundef %4)
  store ptr %5, ptr %1, align 8
  %6 = load ptr, ptr %1, align 8
  call void @expert_register_field_array(ptr noundef %6, ptr noundef @proto_register_docsis_tlv.ei, i32 noundef 2)
  %7 = load i32, ptr @proto_docsis_tlv, align 4
  %8 = call ptr @register_dissector(ptr noundef @.str.874, ptr noundef @dissect_docsis_tlv, i32 noundef %7)
  call void @llvm.lifetime.end.p0(i64 8, ptr %1) #4
  ret void
}