; Function Attrs: null_pointer_is_valid sspstrong uwtable
define hidden void @proto_register_docsis_tlv() local_unnamed_addr #1 {
  %1 = tail call i32 @proto_register_protocol(ptr noundef nonnull @.str.872, ptr noundef nonnull @.str.873, ptr noundef nonnull @.str.874)
  store i32 %1, ptr @proto_docsis_tlv, align 4
  tail call void @proto_register_field_array(i32 noundef %1, ptr noundef nonnull @proto_register_docsis_tlv.hf, i32 noundef 388)
  tail call void @proto_register_subtree_array(ptr noundef nonnull @proto_register_docsis_tlv.ett, i32 noundef 71)
  %2 = load i32, ptr @proto_docsis_tlv, align 4
  %3 = tail call ptr @expert_register_protocol(i32 noundef %2)
  tail call void @expert_register_field_array(ptr noundef %3, ptr noundef nonnull @proto_register_docsis_tlv.ei, i32 noundef 2)
  %4 = load i32, ptr @proto_docsis_tlv, align 4
  %5 = tail call ptr @register_dissector(ptr noundef nonnull @.str.874, ptr noundef nonnull @dissect_docsis_tlv, i32 noundef %4)
  ret void
}